target datalayout = "e-m:e-p270:32:32-p271:32:32-p272:64:64-i64:64-i128:128-f80:128-n8:16:32:64-S128"
target triple = "x86_64-pc-linux-gnu"

@CodeCacheSegmentSize = external global i64, align 8
@CodeEntryAlignment = external global i64, align 8
@.str.11 = private unnamed_addr constant [108 x i8] c"CodeCacheSegmentSize  (%lu) must be larger than or equal to CodeEntryAlignment (%ld) to align entry points\0A\00", align 1
@.str.12 = private unnamed_addr constant [69 x i8] c"CodeCacheSegmentSize  (%lu) must be at least %lu to align constants\0A\00", align 1
@OptoLoopAlignment = external global i64, align 8
@.str.13 = private unnamed_addr constant [106 x i8] c"CodeCacheSegmentSize  (%lu) must be larger than or equal to OptoLoopAlignment (%ld) to align inner loops\0A\00", align 1

; Function Attrs: mustprogress nounwind uwtable
define hidden noundef i32 @_Z34CodeCacheSegmentSizeConstraintFuncmb(i64 noundef %0, i1 noundef zeroext %1) #1 {
  %3 = alloca i32, align 4
  %4 = alloca i64, align 8
  %5 = alloca i8, align 1
  store i64 %0, ptr %4, align 8
  %6 = zext i1 %1 to i8
  store i8 %6, ptr %5, align 1
  %7 = load i64, ptr @CodeCacheSegmentSize, align 8
  %8 = load i64, ptr @CodeEntryAlignment, align 8
  %9 = icmp ult i64 %7, %8
  br i1 %9, label %10, label %15

10:                                               ; preds = %2
  %11 = load i8, ptr %5, align 1
  %12 = trunc i8 %11 to i1
  %13 = load i64, ptr @CodeCacheSegmentSize, align 8
  %14 = load i64, ptr @CodeEntryAlignment, align 8
  call void (i1, ptr, ...) @_ZN7JVMFlag10printErrorEbPKcz(i1 noundef zeroext %12, ptr noundef @.str.11, i64 noundef %13, i64 noundef %14)
  store i32 6, ptr %3, align 4
  br label %32

15:                                               ; preds = %2
  %16 = load i64, ptr @CodeCacheSegmentSize, align 8
  %17 = icmp ult i64 %16, 8
  br i1 %17, label %18, label %22

18:                                               ; preds = %15
  %19 = load i8, ptr %5, align 1
  %20 = trunc i8 %19 to i1
  %21 = load i64, ptr @CodeCacheSegmentSize, align 8
  call void (i1, ptr, ...) @_ZN7JVMFlag10printErrorEbPKcz(i1 noundef zeroext %20, ptr noundef @.str.12, i64 noundef %21, i64 noundef 8)
  store i32 6, ptr %3, align 4
  br label %32

22:                                               ; preds = %15
  %23 = load i64, ptr @CodeCacheSegmentSize, align 8
  %24 = load i64, ptr @OptoLoopAlignment, align 8
  %25 = icmp ult i64 %23, %24
  br i1 %25, label %26, label %31

26:                                               ; preds = %22
  %27 = load i8, ptr %5, align 1
  %28 = trunc i8 %27 to i1
  %29 = load i64, ptr @CodeCacheSegmentSize, align 8
  %30 = load i64, ptr @OptoLoopAlignment, align 8
  call void (i1, ptr, ...) @_ZN7JVMFlag10printErrorEbPKcz(i1 noundef zeroext %28, ptr noundef @.str.13, i64 noundef %29, i64 noundef %30)
  store i32 6, ptr %3, align 4
  br label %32

31:                                               ; preds = %22
  store i32 0, ptr %3, align 4
  br label %32

32:                                               ; preds = %31, %26, %18, %10
  %33 = load i32, ptr %3, align 4
  ret i32 %33
}