; Function Attrs: mustprogress nounwind uwtable
define hidden noundef range(i32 0, 7) i32 @_Z34CodeCacheSegmentSizeConstraintFuncmb(i64 noundef %0, i1 noundef zeroext %1) local_unnamed_addr #0 {
  %3 = load i64, ptr @CodeCacheSegmentSize, align 8
  %4 = load i64, ptr @CodeEntryAlignment, align 8
  %5 = icmp ult i64 %3, %4
  br i1 %5, label %6, label %7

6:                                                ; preds = %2
  tail call void (i1, ptr, ...) @_ZN7JVMFlag10printErrorEbPKcz(i1 noundef zeroext %1, ptr noundef nonnull @.str.11, i64 noundef %3, i64 noundef %4) #6
  br label %14

7:                                                ; preds = %2
  %8 = icmp ult i64 %3, 8
  br i1 %8, label %9, label %10

9:                                                ; preds = %7
  tail call void (i1, ptr, ...) @_ZN7JVMFlag10printErrorEbPKcz(i1 noundef zeroext %1, ptr noundef nonnull @.str.12, i64 noundef %3, i64 noundef 8) #6
  br label %14

10:                                               ; preds = %7
  %11 = load i64, ptr @OptoLoopAlignment, align 8
  %12 = icmp ult i64 %3, %11
  br i1 %12, label %13, label %14

13:                                               ; preds = %10
  tail call void (i1, ptr, ...) @_ZN7JVMFlag10printErrorEbPKcz(i1 noundef zeroext %1, ptr noundef nonnull @.str.13, i64 noundef %3, i64 noundef %11) #6
  br label %14

14:                                               ; preds = %10, %13, %9, %6
  %.0 = phi i32 [ 6, %6 ], [ 6, %9 ], [ 6, %13 ], [ 0, %10 ]
  ret i32 %.0
}